; ModuleID = 'source-C-CXX/40/520.c'
source_filename = "source-C-CXX/40/520.c"
target datalayout = "e-m:e-p270:32:32-p271:32:32-p272:64:64-i64:64-f80:128-n8:16:32:64-S128"
target triple = "x86_64-pc-linux-gnu"

@.str = private unnamed_addr constant [15 x i8] c"%d %d %d %d %d\00", align 1

; Function Attrs: nofree nounwind sspstrong uwtable
define dso_local i32 @main() local_unnamed_addr #0 {
  br label %1

1:                                                ; preds = %0, %9
  %2 = phi i32 [ 1, %0 ], [ %10, %9 ]
  %3 = add nsw i32 %2, -1
  %4 = icmp ugt i32 %3, 1
  %5 = icmp eq i32 %2, 5
  %6 = xor i1 %5, true
  %7 = xor i1 %4, true
  %8 = select i1 %6, i1 true, i1 %7
  br i1 %8, label %9, label %13

9:                                                ; preds = %1, %13
  %10 = add nuw nsw i32 %2, 1
  %11 = icmp eq i32 %10, 6
  br i1 %11, label %12, label %1, !llvm.loop !5

12:                                               ; preds = %9
  ret i32 0

13:                                               ; preds = %1
  %14 = tail call i32 (i8*, ...) @printf(i8* nonnull dereferenceable(1) getelementptr inbounds ([15 x i8], [15 x i8]* @.str, i64 0, i64 0), i32 5, i32 2, i32 1, i32 3, i32 4)
  br label %9
}

; Function Attrs: nofree nounwind
declare noundef i32 @printf(i8* nocapture noundef readonly, ...) local_unnamed_addr #1


!llvm.module.flags = !{!0, !1, !2, !3}
!llvm.ident = !{!4}

!0 = !{i32 1, !"wchar_size", i32 4}
!1 = !{i32 7, !"PIC Level", i32 2}
!2 = !{i32 7, !"PIE Level", i32 2}
!3 = !{i32 7, !"uwtable", i32 1}
!4 = !{!"clang version 13.0.0"}
!5 = distinct !{!5, !6}
!6 = !{!"llvm.loop.mustprogress"}
